target datalayout = "e-m:e-p270:32:32-p271:32:32-p272:64:64-i64:64-i128:128-f80:128-n8:16:32:64-S128"
target triple = "x86_64-pc-linux-gnu"

%struct.IDAMemRec = type { ptr, double, ptr, ptr, i32, double, double, ptr, i32, i32, ptr, ptr, i32, i32, [6 x ptr], [6 x double], [6 x double], [6 x double], [6 x double], [6 x double], ptr, ptr, ptr, ptr, ptr, ptr, ptr, ptr, ptr, ptr, ptr, ptr, ptr, ptr, ptr, ptr, ptr, double, ptr, ptr, i32, i32, i32, i32, i32, i32, i32, i32, double, double, double, i32, double, i32, i32, i32, i32, i32, double, double, double, double, double, double, double, double, double, double, double, double, double, double, double, double, i32, i32, i32, i32, i64, double, double, double, double, double, double, double, double, double, i64, i64, i64, i64, i64, i64, i64, i64, i64, i64, i64, double, i32, i32, i32, i32, i32, ptr, i32, ptr, ptr, ptr, ptr, ptr, ptr, ptr, double, i32, ptr, i32, ptr, ptr, double, double, double, ptr, ptr, ptr, double, double, i32, i32, i64, ptr, i32, [6 x double], [5 x double], [6 x ptr], [6 x ptr] }

@.str = private unnamed_addr constant [109 x i8] c"generated/home/dtcxzyw/WorkSpace/Projects/compilers/llvm-opt-benchmark/bench/sundials/sundials/src/ida/ida.c\00", align 1
@.str.3 = private unnamed_addr constant [24 x i8] c"ida_mem = NULL illegal.\00", align 1
@__func__.IDAHandleFailure = private unnamed_addr constant [17 x i8] c"IDAHandleFailure\00", align 1
@.str.38 = private unnamed_addr constant [77 x i8] c"At t = %lg and h = %lg, the error test failed repeatedly or with |h| = hmin.\00", align 1
@.str.39 = private unnamed_addr constant [88 x i8] c"At t = %lg and h = %lg, the corrector convergence failed repeatedly or with |h| = hmin.\00", align 1
@.str.40 = private unnamed_addr constant [58 x i8] c"At t = %lg, the linear solver setup failed unrecoverably.\00", align 1
@.str.41 = private unnamed_addr constant [58 x i8] c"At t = %lg, the linear solver solve failed unrecoverably.\00", align 1
@.str.42 = private unnamed_addr constant [50 x i8] c"At t = %lg, repeated recoverable residual errors.\00", align 1
@.str.43 = private unnamed_addr constant [56 x i8] c"At t = %lg, the residual function failed unrecoverably.\00", align 1
@.str.44 = private unnamed_addr constant [54 x i8] c"At t = %lg, unable to satisfy inequality constraints.\00", align 1
@.str.45 = private unnamed_addr constant [60 x i8] c"At t = %lg, , the nonlinear solver was passed a NULL input.\00", align 1
@.str.46 = private unnamed_addr constant [63 x i8] c"At t = %lg, , the nonlinear solver setup failed unrecoverably.\00", align 1
@.str.47 = private unnamed_addr constant [70 x i8] c"At t = %lg, , the nonlinear solver failed in an unrecoverable manner.\00", align 1
@.str.48 = private unnamed_addr constant [112 x i8] c"IDA encountered an unrecognized error. Please report this to the Sundials developers at sundials-users@llnl.gov\00", align 1

; Function Attrs: nounwind uwtable
define internal i32 @IDAHandleFailure(ptr noundef %0, i32 noundef %1) #0 {
  %3 = alloca i32, align 4
  %4 = alloca ptr, align 8
  %5 = alloca i32, align 4
  store ptr %0, ptr %4, align 8, !tbaa !8
  store i32 %1, ptr %5, align 4, !tbaa !64
  %6 = load i32, ptr %5, align 4, !tbaa !64
  switch i32 %6, label %64 [
    i32 -3, label %7
    i32 -4, label %15
    i32 -6, label %23
    i32 -7, label %28
    i32 -9, label %33
    i32 -8, label %38
    i32 -11, label %43
    i32 -20, label %48
    i32 -9999, label %49
    i32 -16, label %54
    i32 -17, label %59
  ]

7:                                                ; preds = %2
  %8 = load ptr, ptr %4, align 8, !tbaa !8
  %9 = load ptr, ptr %4, align 8, !tbaa !8
  %10 = getelementptr inbounds nuw %struct.IDAMemRec, ptr %9, i32 0, i32 63
  %11 = load double, ptr %10, align 8, !tbaa !83
  %12 = load ptr, ptr %4, align 8, !tbaa !8
  %13 = getelementptr inbounds nuw %struct.IDAMemRec, ptr %12, i32 0, i32 60
  %14 = load double, ptr %13, align 8, !tbaa !142
  call void (ptr, i32, i32, ptr, ptr, ptr, ...) @IDAProcessError(ptr noundef %8, i32 noundef -3, i32 noundef 2361, ptr noundef @__func__.IDAHandleFailure, ptr noundef @.str, ptr noundef @.str.38, double noundef %11, double noundef %14)
  store i32 -3, ptr %3, align 4
  br label %66

15:                                               ; preds = %2
  %16 = load ptr, ptr %4, align 8, !tbaa !8
  %17 = load ptr, ptr %4, align 8, !tbaa !8
  %18 = getelementptr inbounds nuw %struct.IDAMemRec, ptr %17, i32 0, i32 63
  %19 = load double, ptr %18, align 8, !tbaa !83
  %20 = load ptr, ptr %4, align 8, !tbaa !8
  %21 = getelementptr inbounds nuw %struct.IDAMemRec, ptr %20, i32 0, i32 60
  %22 = load double, ptr %21, align 8, !tbaa !142
  call void (ptr, i32, i32, ptr, ptr, ptr, ...) @IDAProcessError(ptr noundef %16, i32 noundef -4, i32 noundef 2366, ptr noundef @__func__.IDAHandleFailure, ptr noundef @.str, ptr noundef @.str.39, double noundef %19, double noundef %22)
  store i32 -4, ptr %3, align 4
  br label %66

23:                                               ; preds = %2
  %24 = load ptr, ptr %4, align 8, !tbaa !8
  %25 = load ptr, ptr %4, align 8, !tbaa !8
  %26 = getelementptr inbounds nuw %struct.IDAMemRec, ptr %25, i32 0, i32 63
  %27 = load double, ptr %26, align 8, !tbaa !83
  call void (ptr, i32, i32, ptr, ptr, ptr, ...) @IDAProcessError(ptr noundef %24, i32 noundef -6, i32 noundef 2371, ptr noundef @__func__.IDAHandleFailure, ptr noundef @.str, ptr noundef @.str.40, double noundef %27)
  store i32 -6, ptr %3, align 4
  br label %66

28:                                               ; preds = %2
  %29 = load ptr, ptr %4, align 8, !tbaa !8
  %30 = load ptr, ptr %4, align 8, !tbaa !8
  %31 = getelementptr inbounds nuw %struct.IDAMemRec, ptr %30, i32 0, i32 63
  %32 = load double, ptr %31, align 8, !tbaa !83
  call void (ptr, i32, i32, ptr, ptr, ptr, ...) @IDAProcessError(ptr noundef %29, i32 noundef -7, i32 noundef 2376, ptr noundef @__func__.IDAHandleFailure, ptr noundef @.str, ptr noundef @.str.41, double noundef %32)
  store i32 -7, ptr %3, align 4
  br label %66

33:                                               ; preds = %2
  %34 = load ptr, ptr %4, align 8, !tbaa !8
  %35 = load ptr, ptr %4, align 8, !tbaa !8
  %36 = getelementptr inbounds nuw %struct.IDAMemRec, ptr %35, i32 0, i32 63
  %37 = load double, ptr %36, align 8, !tbaa !83
  call void (ptr, i32, i32, ptr, ptr, ptr, ...) @IDAProcessError(ptr noundef %34, i32 noundef -9, i32 noundef 2381, ptr noundef @__func__.IDAHandleFailure, ptr noundef @.str, ptr noundef @.str.42, double noundef %37)
  store i32 -9, ptr %3, align 4
  br label %66

38:                                               ; preds = %2
  %39 = load ptr, ptr %4, align 8, !tbaa !8
  %40 = load ptr, ptr %4, align 8, !tbaa !8
  %41 = getelementptr inbounds nuw %struct.IDAMemRec, ptr %40, i32 0, i32 63
  %42 = load double, ptr %41, align 8, !tbaa !83
  call void (ptr, i32, i32, ptr, ptr, ptr, ...) @IDAProcessError(ptr noundef %39, i32 noundef -8, i32 noundef 2386, ptr noundef @__func__.IDAHandleFailure, ptr noundef @.str, ptr noundef @.str.43, double noundef %42)
  store i32 -8, ptr %3, align 4
  br label %66

43:                                               ; preds = %2
  %44 = load ptr, ptr %4, align 8, !tbaa !8
  %45 = load ptr, ptr %4, align 8, !tbaa !8
  %46 = getelementptr inbounds nuw %struct.IDAMemRec, ptr %45, i32 0, i32 63
  %47 = load double, ptr %46, align 8, !tbaa !83
  call void (ptr, i32, i32, ptr, ptr, ptr, ...) @IDAProcessError(ptr noundef %44, i32 noundef -11, i32 noundef 2391, ptr noundef @__func__.IDAHandleFailure, ptr noundef @.str, ptr noundef @.str.44, double noundef %47)
  store i32 -11, ptr %3, align 4
  br label %66

48:                                               ; preds = %2
  call void (ptr, i32, i32, ptr, ptr, ptr, ...) @IDAProcessError(ptr noundef null, i32 noundef -20, i32 noundef 2396, ptr noundef @__func__.IDAHandleFailure, ptr noundef @.str, ptr noundef @.str.3)
  store i32 -20, ptr %3, align 4
  br label %66

49:                                               ; preds = %2
  %50 = load ptr, ptr %4, align 8, !tbaa !8
  %51 = load ptr, ptr %4, align 8, !tbaa !8
  %52 = getelementptr inbounds nuw %struct.IDAMemRec, ptr %51, i32 0, i32 63
  %53 = load double, ptr %52, align 8, !tbaa !83
  call void (ptr, i32, i32, ptr, ptr, ptr, ...) @IDAProcessError(ptr noundef %50, i32 noundef -20, i32 noundef 2400, ptr noundef @__func__.IDAHandleFailure, ptr noundef @.str, ptr noundef @.str.45, double noundef %53)
  store i32 -20, ptr %3, align 4
  br label %66

54:                                               ; preds = %2
  %55 = load ptr, ptr %4, align 8, !tbaa !8
  %56 = load ptr, ptr %4, align 8, !tbaa !8
  %57 = getelementptr inbounds nuw %struct.IDAMemRec, ptr %56, i32 0, i32 63
  %58 = load double, ptr %57, align 8, !tbaa !83
  call void (ptr, i32, i32, ptr, ptr, ptr, ...) @IDAProcessError(ptr noundef %55, i32 noundef -16, i32 noundef 2405, ptr noundef @__func__.IDAHandleFailure, ptr noundef @.str, ptr noundef @.str.46, double noundef %58)
  store i32 -16, ptr %3, align 4
  br label %66

59:                                               ; preds = %2
  %60 = load ptr, ptr %4, align 8, !tbaa !8
  %61 = load ptr, ptr %4, align 8, !tbaa !8
  %62 = getelementptr inbounds nuw %struct.IDAMemRec, ptr %61, i32 0, i32 63
  %63 = load double, ptr %62, align 8, !tbaa !83
  call void (ptr, i32, i32, ptr, ptr, ptr, ...) @IDAProcessError(ptr noundef %60, i32 noundef -17, i32 noundef 2409, ptr noundef @__func__.IDAHandleFailure, ptr noundef @.str, ptr noundef @.str.47, double noundef %63)
  store i32 -17, ptr %3, align 4
  br label %66

64:                                               ; preds = %2
  %65 = load ptr, ptr %4, align 8, !tbaa !8
  call void (ptr, i32, i32, ptr, ptr, ptr, ...) @IDAProcessError(ptr noundef %65, i32 noundef -99, i32 noundef 2415, ptr noundef @__func__.IDAHandleFailure, ptr noundef @.str, ptr noundef @.str.48)
  store i32 -99, ptr %3, align 4
  br label %66

66:                                               ; preds = %64, %59, %54, %49, %48, %43, %38, %33, %28, %23, %15, %7
  %67 = load i32, ptr %3, align 4
  ret i32 %67
}