; Function Attrs: nounwind uwtable
define internal fastcc range(i32 -99, -2) i32 @IDAHandleFailure(ptr noundef nonnull captures(address_is_null) %0, i32 noundef %1) unnamed_addr #0 {
  switch i32 %1, label %38 [
    i32 -3, label %3
    i32 -4, label %8
    i32 -6, label %13
    i32 -7, label %16
    i32 -9, label %19
    i32 -8, label %22
    i32 -11, label %25
    i32 -20, label %28
    i32 -9999, label %29
    i32 -16, label %32
    i32 -17, label %35
  ]

3:                                                ; preds = %2
  %4 = getelementptr inbounds nuw i8, ptr %0, i64 680
  %5 = load double, ptr %4, align 8, !tbaa !80
  %6 = getelementptr inbounds nuw i8, ptr %0, i64 656
  %7 = load double, ptr %6, align 8, !tbaa !118
  tail call void (ptr, i32, i32, ptr, ptr, ptr, ...) @IDAProcessError(ptr noundef nonnull %0, i32 noundef -3, i32 noundef 2361, ptr noundef nonnull @__func__.IDAHandleFailure, ptr noundef nonnull @.str, ptr noundef nonnull @.str.38, double noundef %5, double noundef %7)
  br label %39

8:                                                ; preds = %2
  %9 = getelementptr inbounds nuw i8, ptr %0, i64 680
  %10 = load double, ptr %9, align 8, !tbaa !80
  %11 = getelementptr inbounds nuw i8, ptr %0, i64 656
  %12 = load double, ptr %11, align 8, !tbaa !118
  tail call void (ptr, i32, i32, ptr, ptr, ptr, ...) @IDAProcessError(ptr noundef nonnull %0, i32 noundef -4, i32 noundef 2366, ptr noundef nonnull @__func__.IDAHandleFailure, ptr noundef nonnull @.str, ptr noundef nonnull @.str.39, double noundef %10, double noundef %12)
  br label %39

13:                                               ; preds = %2
  %14 = getelementptr inbounds nuw i8, ptr %0, i64 680
  %15 = load double, ptr %14, align 8, !tbaa !80
  tail call void (ptr, i32, i32, ptr, ptr, ptr, ...) @IDAProcessError(ptr noundef nonnull %0, i32 noundef -6, i32 noundef 2371, ptr noundef nonnull @__func__.IDAHandleFailure, ptr noundef nonnull @.str, ptr noundef nonnull @.str.40, double noundef %15)
  br label %39

16:                                               ; preds = %2
  %17 = getelementptr inbounds nuw i8, ptr %0, i64 680
  %18 = load double, ptr %17, align 8, !tbaa !80
  tail call void (ptr, i32, i32, ptr, ptr, ptr, ...) @IDAProcessError(ptr noundef nonnull %0, i32 noundef -7, i32 noundef 2376, ptr noundef nonnull @__func__.IDAHandleFailure, ptr noundef nonnull @.str, ptr noundef nonnull @.str.41, double noundef %18)
  br label %39

19:                                               ; preds = %2
  %20 = getelementptr inbounds nuw i8, ptr %0, i64 680
  %21 = load double, ptr %20, align 8, !tbaa !80
  tail call void (ptr, i32, i32, ptr, ptr, ptr, ...) @IDAProcessError(ptr noundef nonnull %0, i32 noundef -9, i32 noundef 2381, ptr noundef nonnull @__func__.IDAHandleFailure, ptr noundef nonnull @.str, ptr noundef nonnull @.str.42, double noundef %21)
  br label %39

22:                                               ; preds = %2
  %23 = getelementptr inbounds nuw i8, ptr %0, i64 680
  %24 = load double, ptr %23, align 8, !tbaa !80
  tail call void (ptr, i32, i32, ptr, ptr, ptr, ...) @IDAProcessError(ptr noundef nonnull %0, i32 noundef -8, i32 noundef 2386, ptr noundef nonnull @__func__.IDAHandleFailure, ptr noundef nonnull @.str, ptr noundef nonnull @.str.43, double noundef %24)
  br label %39

25:                                               ; preds = %2
  %26 = getelementptr inbounds nuw i8, ptr %0, i64 680
  %27 = load double, ptr %26, align 8, !tbaa !80
  tail call void (ptr, i32, i32, ptr, ptr, ptr, ...) @IDAProcessError(ptr noundef nonnull %0, i32 noundef -11, i32 noundef 2391, ptr noundef nonnull @__func__.IDAHandleFailure, ptr noundef nonnull @.str, ptr noundef nonnull @.str.44, double noundef %27)
  br label %39

28:                                               ; preds = %2
  tail call void (ptr, i32, i32, ptr, ptr, ptr, ...) @IDAProcessError(ptr noundef null, i32 noundef -20, i32 noundef 2396, ptr noundef nonnull @__func__.IDAHandleFailure, ptr noundef nonnull @.str, ptr noundef nonnull @.str.3)
  br label %39

29:                                               ; preds = %2
  %30 = getelementptr inbounds nuw i8, ptr %0, i64 680
  %31 = load double, ptr %30, align 8, !tbaa !80
  tail call void (ptr, i32, i32, ptr, ptr, ptr, ...) @IDAProcessError(ptr noundef nonnull %0, i32 noundef -20, i32 noundef 2400, ptr noundef nonnull @__func__.IDAHandleFailure, ptr noundef nonnull @.str, ptr noundef nonnull @.str.45, double noundef %31)
  br label %39

32:                                               ; preds = %2
  %33 = getelementptr inbounds nuw i8, ptr %0, i64 680
  %34 = load double, ptr %33, align 8, !tbaa !80
  tail call void (ptr, i32, i32, ptr, ptr, ptr, ...) @IDAProcessError(ptr noundef nonnull %0, i32 noundef -16, i32 noundef 2405, ptr noundef nonnull @__func__.IDAHandleFailure, ptr noundef nonnull @.str, ptr noundef nonnull @.str.46, double noundef %34)
  br label %39

35:                                               ; preds = %2
  %36 = getelementptr inbounds nuw i8, ptr %0, i64 680
  %37 = load double, ptr %36, align 8, !tbaa !80
  tail call void (ptr, i32, i32, ptr, ptr, ptr, ...) @IDAProcessError(ptr noundef nonnull %0, i32 noundef -17, i32 noundef 2409, ptr noundef nonnull @__func__.IDAHandleFailure, ptr noundef nonnull @.str, ptr noundef nonnull @.str.47, double noundef %37)
  br label %39

38:                                               ; preds = %2
  tail call void (ptr, i32, i32, ptr, ptr, ptr, ...) @IDAProcessError(ptr noundef nonnull %0, i32 noundef -99, i32 noundef 2415, ptr noundef nonnull @__func__.IDAHandleFailure, ptr noundef nonnull @.str, ptr noundef nonnull @.str.48)
  br label %39

39:                                               ; preds = %38, %35, %32, %29, %28, %25, %22, %19, %16, %13, %8, %3
  %.0 = phi i32 [ -99, %38 ], [ -17, %35 ], [ -16, %32 ], [ -20, %29 ], [ -20, %28 ], [ -11, %25 ], [ -8, %22 ], [ -9, %19 ], [ -7, %16 ], [ -6, %13 ], [ -4, %8 ], [ -3, %3 ]
  ret i32 %.0
}